; Function Attrs: nounwind uwtable
define i32 @Abc_NodeIsConst0(ptr noundef readonly captures(none) %0) local_unnamed_addr #0 {
  %2 = load ptr, ptr %0, align 8, !tbaa !24
  %3 = getelementptr i8, ptr %0, i64 20
  %.val.i = load i32, ptr %3, align 4
  %4 = and i32 %.val.i, 15
  %.not.i = icmp eq i32 %4, 7
  br i1 %.not.i, label %Abc_NodeIsConst.exit, label %Abc_NodeIsConst.exit.thread

Abc_NodeIsConst.exit:                             ; preds = %1
  %5 = getelementptr i8, ptr %0, i64 28
  %.val2.i = load i32, ptr %5, align 4, !tbaa !59
  %.not = icmp eq i32 %.val2.i, 0
  br i1 %.not, label %6, label %Abc_NodeIsConst.exit.thread

6:                                                ; preds = %Abc_NodeIsConst.exit
  %7 = getelementptr i8, ptr %2, i64 4
  %.val15 = load i32, ptr %7, align 4, !tbaa !51
  switch i32 %.val15, label %Abc_NodeIsConst.exit.thread [
    i32 1, label %8
    i32 2, label %12
    i32 3, label %18
    i32 4, label %24
  ]

8:                                                ; preds = %6
  %9 = getelementptr inbounds nuw i8, ptr %0, i64 56
  %10 = load ptr, ptr %9, align 8, !tbaa !43
  %11 = tail call i32 @Abc_SopIsConst0(ptr noundef %10) #10
  br label %Abc_NodeIsConst.exit.thread

12:                                               ; preds = %6
  %13 = getelementptr inbounds nuw i8, ptr %0, i64 56
  %14 = load ptr, ptr %13, align 8, !tbaa !43
  %15 = ptrtoint ptr %14 to i64
  %16 = trunc i64 %15 to i32
  %17 = and i32 %16, 1
  br label %Abc_NodeIsConst.exit.thread

18:                                               ; preds = %6
  %19 = getelementptr inbounds nuw i8, ptr %0, i64 56
  %20 = load ptr, ptr %19, align 8, !tbaa !43
  %21 = ptrtoint ptr %20 to i64
  %22 = trunc i64 %21 to i32
  %23 = and i32 %22, 1
  br label %Abc_NodeIsConst.exit.thread

24:                                               ; preds = %6
  %25 = getelementptr inbounds nuw i8, ptr %0, i64 56
  %26 = load ptr, ptr %25, align 8, !tbaa !43
  %27 = tail call ptr (...) @Abc_FrameReadLibGen() #10
  %28 = tail call ptr @Mio_LibraryReadConst0(ptr noundef %27) #10
  %29 = icmp eq ptr %26, %28
  %30 = zext i1 %29 to i32
  br label %Abc_NodeIsConst.exit.thread

Abc_NodeIsConst.exit.thread:                      ; preds = %6, %1, %Abc_NodeIsConst.exit, %24, %18, %12, %8
  %.0 = phi i32 [ %11, %8 ], [ %17, %12 ], [ %23, %18 ], [ %30, %24 ], [ 0, %Abc_NodeIsConst.exit ], [ 0, %1 ], [ 0, %6 ]
  ret i32 %.0
}